; Function Attrs: mustprogress uwtable
define void @_ZN32pxrInternal_v0_24__pxrReserved__38UsdObjectCollectionExpressionEvaluatorC2ERKNS_9TfWeakPtrINS_8UsdStageEEERKNS_17SdfPathExpressionE(ptr noundef nonnull align 8 dereferenceable(64) initializes((0, 16)) %0, ptr noundef nonnull readonly align 8 captures(none) dereferenceable(16) %1, ptr noundef nonnull align 8 dereferenceable(104) %2) unnamed_addr #1 align 2 personality ptr @__gxx_personality_v0 {
  %4 = load ptr, ptr %1, align 8
  store ptr %4, ptr %0, align 8
  %5 = getelementptr inbounds nuw i8, ptr %0, i64 8
  %6 = getelementptr inbounds nuw i8, ptr %1, i64 8
  %7 = load ptr, ptr %6, align 8
  store ptr %7, ptr %5, align 8
  %.not.i.i.i.i = icmp eq ptr %7, null
  br i1 %.not.i.i.i.i, label %_ZN32pxrInternal_v0_24__pxrReserved__9TfWeakPtrINS_8UsdStageEEC2ERKS2_.exit, label %8

8:                                                ; preds = %3
  %9 = getelementptr inbounds nuw i8, ptr %7, i64 8
  %10 = atomicrmw add ptr %9, i32 1 monotonic, align 4
  br label %_ZN32pxrInternal_v0_24__pxrReserved__9TfWeakPtrINS_8UsdStageEEC2ERKS2_.exit

_ZN32pxrInternal_v0_24__pxrReserved__9TfWeakPtrINS_8UsdStageEEC2ERKS2_.exit: ; preds = %3, %8
  %11 = invoke noundef nonnull align 8 dereferenceable(80) ptr @_ZN32pxrInternal_v0_24__pxrReserved__32UsdGetCollectionPredicateLibraryEv()
          to label %12 unwind label %15

12:                                               ; preds = %_ZN32pxrInternal_v0_24__pxrReserved__9TfWeakPtrINS_8UsdStageEEC2ERKS2_.exit
  %13 = getelementptr inbounds nuw i8, ptr %0, i64 16
  invoke void @_ZN32pxrInternal_v0_24__pxrReserved__25SdfMakePathExpressionEvalINS_9UsdObjectEEENS_21SdfPathExpressionEvalIT_EERKNS_17SdfPathExpressionERKNS_19SdfPredicateLibraryIS3_EE(ptr dead_on_unwind nonnull writable sret(%"class.pxrInternal_v0_24__pxrReserved__::SdfPathExpressionEval") align 8 %13, ptr noundef nonnull align 8 dereferenceable(104) %2, ptr noundef nonnull align 8 dereferenceable(80) %11)
          to label %14 unwind label %15

14:                                               ; preds = %12
  ret void

15:                                               ; preds = %12, %_ZN32pxrInternal_v0_24__pxrReserved__9TfWeakPtrINS_8UsdStageEEC2ERKS2_.exit
  %16 = landingpad { ptr, i32 }
          cleanup
  %17 = load ptr, ptr %5, align 8
  %.not.i.i.i.i4 = icmp eq ptr %17, null
  br i1 %.not.i.i.i.i4, label %_ZN32pxrInternal_v0_24__pxrReserved__9TfWeakPtrINS_8UsdStageEED2Ev.exit, label %_ZN32pxrInternal_v0_24__pxrReserved__17Tf_RefPtr_Counter9RemoveRefEPKNS_9TfRefBaseE.exit.i.i.i

_ZN32pxrInternal_v0_24__pxrReserved__17Tf_RefPtr_Counter9RemoveRefEPKNS_9TfRefBaseE.exit.i.i.i: ; preds = %15
  %18 = getelementptr inbounds nuw i8, ptr %17, i64 8
  %19 = atomicrmw sub ptr %18, i32 1 release, align 4
  %20 = icmp eq i32 %19, 1
  br i1 %20, label %21, label %_ZN32pxrInternal_v0_24__pxrReserved__9TfWeakPtrINS_8UsdStageEED2Ev.exit

21:                                               ; preds = %_ZN32pxrInternal_v0_24__pxrReserved__17Tf_RefPtr_Counter9RemoveRefEPKNS_9TfRefBaseE.exit.i.i.i
  %22 = load ptr, ptr %17, align 8
  %23 = getelementptr inbounds nuw i8, ptr %22, i64 8
  %24 = load ptr, ptr %23, align 8
  tail call void %24(ptr noundef nonnull align 8 dereferenceable(12) %17) #23
  br label %_ZN32pxrInternal_v0_24__pxrReserved__9TfWeakPtrINS_8UsdStageEED2Ev.exit

_ZN32pxrInternal_v0_24__pxrReserved__9TfWeakPtrINS_8UsdStageEED2Ev.exit: ; preds = %15, %_ZN32pxrInternal_v0_24__pxrReserved__17Tf_RefPtr_Counter9RemoveRefEPKNS_9TfRefBaseE.exit.i.i.i, %21
  resume { ptr, i32 } %16
}